#include <math.h>
#include <stdio.h>
#include <stdlib.h>
#include <string.h>

void main()
{
	int n,i,k,m=0,*a,*c;
	double t,s=0,*b;
	scanf("%d",&n);
	a=(int *)malloc(sizeof(int)*n);
	b=(double *)malloc(sizeof(double)*n);
	c=(int *)malloc(sizeof(int)*n);

	for(i=0;i<n;i++)
	{
		scanf("%d",&a[i]);
		s+=a[i];
	}
	s=s/n;
	for(i=0,t=0;i<n;i++)
	{
		b[i]=fabs(a[i]-s);
		if(b[i]>t) t=b[i];
	}
	for(i=0;i<n;i++)
	{
		if(b[i]==t)
		{
			c[m]=a[i];
			m++;
		}
	}
	for(i=0;i<m-1;i++)
		printf("%d,",c[i]);
	printf("%d",c[m-1]);
	free(a);
	free(b);
	free(c);
}