; ModuleID = '21/1.c'
source_filename = "21/1.c"
target datalayout = "e-m:e-p270:32:32-p271:32:32-p272:64:64-i64:64-f80:128-n8:16:32:64-S128"
target triple = "x86_64-pc-linux-gnu"

@.str = private unnamed_addr constant [3 x i8] c"%d\00", align 1
@.str.1 = private unnamed_addr constant [4 x i8] c"%d,\00", align 1

; Function Attrs: noinline nounwind uwtable
define dso_local void @main() #0 {
  %1 = alloca i32, align 4
  %2 = alloca i32, align 4
  %3 = alloca i32, align 4
  %4 = alloca i32, align 4
  %5 = alloca i32*, align 8
  %6 = alloca i32*, align 8
  %7 = alloca double, align 8
  %8 = alloca double, align 8
  %9 = alloca double*, align 8
  store i32 0, i32* %4, align 4
  store double 0.000000e+00, double* %8, align 8
  %10 = call i32 (i8*, ...) @__isoc99_scanf(i8* getelementptr inbounds ([3 x i8], [3 x i8]* @.str, i64 0, i64 0), i32* %1)
  %11 = load i32, i32* %1, align 4
  %12 = sext i32 %11 to i64
  %13 = mul i64 4, %12
  %14 = call noalias i8* @malloc(i64 %13) #4
  %15 = bitcast i8* %14 to i32*
  store i32* %15, i32** %5, align 8
  %16 = load i32, i32* %1, align 4
  %17 = sext i32 %16 to i64
  %18 = mul i64 8, %17
  %19 = call noalias i8* @malloc(i64 %18) #4
  %20 = bitcast i8* %19 to double*
  store double* %20, double** %9, align 8
  %21 = load i32, i32* %1, align 4
  %22 = sext i32 %21 to i64
  %23 = mul i64 4, %22
  %24 = call noalias i8* @malloc(i64 %23) #4
  %25 = bitcast i8* %24 to i32*
  store i32* %25, i32** %6, align 8
  store i32 0, i32* %2, align 4
  br label %26

26:                                               ; preds = %44, %0
  %27 = load i32, i32* %2, align 4
  %28 = load i32, i32* %1, align 4
  %29 = icmp slt i32 %27, %28
  br i1 %29, label %30, label %47

30:                                               ; preds = %26
  %31 = load i32*, i32** %5, align 8
  %32 = load i32, i32* %2, align 4
  %33 = sext i32 %32 to i64
  %34 = getelementptr inbounds i32, i32* %31, i64 %33
  %35 = call i32 (i8*, ...) @__isoc99_scanf(i8* getelementptr inbounds ([3 x i8], [3 x i8]* @.str, i64 0, i64 0), i32* %34)
  %36 = load i32*, i32** %5, align 8
  %37 = load i32, i32* %2, align 4
  %38 = sext i32 %37 to i64
  %39 = getelementptr inbounds i32, i32* %36, i64 %38
  %40 = load i32, i32* %39, align 4
  %41 = sitofp i32 %40 to double
  %42 = load double, double* %8, align 8
  %43 = fadd double %42, %41
  store double %43, double* %8, align 8
  br label %44

44:                                               ; preds = %30
  %45 = load i32, i32* %2, align 4
  %46 = add nsw i32 %45, 1
  store i32 %46, i32* %2, align 4
  br label %26

47:                                               ; preds = %26
  %48 = load double, double* %8, align 8
  %49 = load i32, i32* %1, align 4
  %50 = sitofp i32 %49 to double
  %51 = fdiv double %48, %50
  store double %51, double* %8, align 8
  store i32 0, i32* %2, align 4
  store double 0.000000e+00, double* %7, align 8
  br label %52

52:                                               ; preds = %84, %47
  %53 = load i32, i32* %2, align 4
  %54 = load i32, i32* %1, align 4
  %55 = icmp slt i32 %53, %54
  br i1 %55, label %56, label %87

56:                                               ; preds = %52
  %57 = load i32*, i32** %5, align 8
  %58 = load i32, i32* %2, align 4
  %59 = sext i32 %58 to i64
  %60 = getelementptr inbounds i32, i32* %57, i64 %59
  %61 = load i32, i32* %60, align 4
  %62 = sitofp i32 %61 to double
  %63 = load double, double* %8, align 8
  %64 = fsub double %62, %63
  %65 = call double @llvm.fabs.f64(double %64)
  %66 = load double*, double** %9, align 8
  %67 = load i32, i32* %2, align 4
  %68 = sext i32 %67 to i64
  %69 = getelementptr inbounds double, double* %66, i64 %68
  store double %65, double* %69, align 8
  %70 = load double*, double** %9, align 8
  %71 = load i32, i32* %2, align 4
  %72 = sext i32 %71 to i64
  %73 = getelementptr inbounds double, double* %70, i64 %72
  %74 = load double, double* %73, align 8
  %75 = load double, double* %7, align 8
  %76 = fcmp ogt double %74, %75
  br i1 %76, label %77, label %83

77:                                               ; preds = %56
  %78 = load double*, double** %9, align 8
  %79 = load i32, i32* %2, align 4
  %80 = sext i32 %79 to i64
  %81 = getelementptr inbounds double, double* %78, i64 %80
  %82 = load double, double* %81, align 8
  store double %82, double* %7, align 8
  br label %83

83:                                               ; preds = %77, %56
  br label %84

84:                                               ; preds = %83
  %85 = load i32, i32* %2, align 4
  %86 = add nsw i32 %85, 1
  store i32 %86, i32* %2, align 4
  br label %52

87:                                               ; preds = %52
  store i32 0, i32* %2, align 4
  br label %88

88:                                               ; preds = %113, %87
  %89 = load i32, i32* %2, align 4
  %90 = load i32, i32* %1, align 4
  %91 = icmp slt i32 %89, %90
  br i1 %91, label %92, label %116

92:                                               ; preds = %88
  %93 = load double*, double** %9, align 8
  %94 = load i32, i32* %2, align 4
  %95 = sext i32 %94 to i64
  %96 = getelementptr inbounds double, double* %93, i64 %95
  %97 = load double, double* %96, align 8
  %98 = load double, double* %7, align 8
  %99 = fcmp oeq double %97, %98
  br i1 %99, label %100, label %112

100:                                              ; preds = %92
  %101 = load i32*, i32** %5, align 8
  %102 = load i32, i32* %2, align 4
  %103 = sext i32 %102 to i64
  %104 = getelementptr inbounds i32, i32* %101, i64 %103
  %105 = load i32, i32* %104, align 4
  %106 = load i32*, i32** %6, align 8
  %107 = load i32, i32* %4, align 4
  %108 = sext i32 %107 to i64
  %109 = getelementptr inbounds i32, i32* %106, i64 %108
  store i32 %105, i32* %109, align 4
  %110 = load i32, i32* %4, align 4
  %111 = add nsw i32 %110, 1
  store i32 %111, i32* %4, align 4
  br label %112

112:                                              ; preds = %100, %92
  br label %113

113:                                              ; preds = %112
  %114 = load i32, i32* %2, align 4
  %115 = add nsw i32 %114, 1
  store i32 %115, i32* %2, align 4
  br label %88

116:                                              ; preds = %88
  store i32 0, i32* %2, align 4
  br label %117

117:                                              ; preds = %129, %116
  %118 = load i32, i32* %2, align 4
  %119 = load i32, i32* %4, align 4
  %120 = sub nsw i32 %119, 1
  %121 = icmp slt i32 %118, %120
  br i1 %121, label %122, label %132

122:                                              ; preds = %117
  %123 = load i32*, i32** %6, align 8
  %124 = load i32, i32* %2, align 4
  %125 = sext i32 %124 to i64
  %126 = getelementptr inbounds i32, i32* %123, i64 %125
  %127 = load i32, i32* %126, align 4
  %128 = call i32 (i8*, ...) @printf(i8* getelementptr inbounds ([4 x i8], [4 x i8]* @.str.1, i64 0, i64 0), i32 %127)
  br label %129

129:                                              ; preds = %122
  %130 = load i32, i32* %2, align 4
  %131 = add nsw i32 %130, 1
  store i32 %131, i32* %2, align 4
  br label %117

132:                                              ; preds = %117
  %133 = load i32*, i32** %6, align 8
  %134 = load i32, i32* %4, align 4
  %135 = sub nsw i32 %134, 1
  %136 = sext i32 %135 to i64
  %137 = getelementptr inbounds i32, i32* %133, i64 %136
  %138 = load i32, i32* %137, align 4
  %139 = call i32 (i8*, ...) @printf(i8* getelementptr inbounds ([3 x i8], [3 x i8]* @.str, i64 0, i64 0), i32 %138)
  %140 = load i32*, i32** %5, align 8
  %141 = bitcast i32* %140 to i8*
  call void @free(i8* %141) #4
  %142 = load double*, double** %9, align 8
  %143 = bitcast double* %142 to i8*
  call void @free(i8* %143) #4
  %144 = load i32*, i32** %6, align 8
  %145 = bitcast i32* %144 to i8*
  call void @free(i8* %145) #4
  ret void
}

declare dso_local i32 @__isoc99_scanf(i8*, ...) #1

; Function Attrs: nounwind
declare dso_local noalias i8* @malloc(i64) #2

; Function Attrs: nounwind readnone speculatable willreturn
declare double @llvm.fabs.f64(double) #3

declare dso_local i32 @printf(i8*, ...) #1

; Function Attrs: nounwind
declare dso_local void @free(i8*) #2


!llvm.module.flags = !{!0}
!llvm.ident = !{!1}

!0 = !{i32 1, !"wchar_size", i32 4}
!1 = !{!"clang version 10.0.0-4ubuntu1 "}
